target datalayout = "e-m:e-p270:32:32-p271:32:32-p272:64:64-i64:64-i128:128-f80:128-n8:16:32:64-S128"
target triple = "x86_64-pc-linux-gnu"

; Function Attrs: nounwind uwtable
define i64 @Java_jdk_internal_misc_VM_getuid(ptr noundef %0, ptr noundef %1) #0 {
  %3 = alloca ptr, align 8
  %4 = alloca ptr, align 8
  store ptr %0, ptr %3, align 8
  store ptr %1, ptr %4, align 8
  %5 = call i32 @getuid() #2
  %6 = zext i32 %5 to i64
  ret i64 %6
}

; Function Attrs: nounwind
declare i32 @getuid() #1

; Function Attrs: nounwind uwtable
define i64 @Java_jdk_internal_misc_VM_geteuid(ptr noundef %0, ptr noundef %1) #0 {
  %3 = alloca ptr, align 8
  %4 = alloca ptr, align 8
  store ptr %0, ptr %3, align 8
  store ptr %1, ptr %4, align 8
  %5 = call i32 @geteuid() #2
  %6 = zext i32 %5 to i64
  ret i64 %6
}

; Function Attrs: nounwind
declare i32 @geteuid() #1

; Function Attrs: nounwind uwtable
define i64 @Java_jdk_internal_misc_VM_getgid(ptr noundef %0, ptr noundef %1) #0 {
  %3 = alloca ptr, align 8
  %4 = alloca ptr, align 8
  store ptr %0, ptr %3, align 8
  store ptr %1, ptr %4, align 8
  %5 = call i32 @getgid() #2
  %6 = zext i32 %5 to i64
  ret i64 %6
}

; Function Attrs: nounwind
declare i32 @getgid() #1

; Function Attrs: nounwind uwtable
define i64 @Java_jdk_internal_misc_VM_getegid(ptr noundef %0, ptr noundef %1) #0 {
  %3 = alloca ptr, align 8
  %4 = alloca ptr, align 8
  store ptr %0, ptr %3, align 8
  store ptr %1, ptr %4, align 8
  %5 = call i32 @getegid() #2
  %6 = zext i32 %5 to i64
  ret i64 %6
}

; Function Attrs: nounwind
declare i32 @getegid() #1


!llvm.module.flags = !{!0, !1, !2, !3, !4, !5}

!0 = !{i32 7, !"Dwarf Version", i32 5}
!1 = !{i32 2, !"Debug Info Version", i32 3}
!2 = !{i32 1, !"wchar_size", i32 4}
!3 = !{i32 8, !"PIC Level", i32 2}
!4 = !{i32 7, !"uwtable", i32 2}
!5 = !{i32 7, !"frame-pointer", i32 2}
